; Function Attrs: null_pointer_is_valid sspstrong uwtable
define internal void @nas_emm_attach_rej(ptr noundef %0, ptr noundef %1, ptr noundef initializes((384, 388)) %2, i32 noundef %3, i32 noundef %4) #1 {
  %6 = getelementptr inbounds nuw i8, ptr %2, i64 384
  store i32 1, ptr %6, align 8
  %7 = icmp sgt i32 %4, 0
  br i1 %7, label %8, label %14

8:                                                ; preds = %5
  %9 = tail call zeroext i16 @elem_v(ptr noundef %0, ptr noundef %1, ptr noundef %2, i32 noundef 10, i32 noundef 11, i32 noundef %3, ptr noundef null)
  %.not = icmp eq i16 %9, 0
  br i1 %.not, label %14, label %10

10:                                               ; preds = %8
  %11 = zext i16 %9 to i32
  %12 = add i32 %3, %11
  %13 = sub nsw i32 %4, %11
  br label %17

14:                                               ; preds = %8, %5
  %15 = tail call ptr @get_gsm_a_msg_string(i32 noundef 10, i32 noundef 11)
  %16 = tail call ptr (ptr, ptr, ptr, ptr, i32, i32, ptr, ...) @proto_tree_add_expert_format(ptr noundef %1, ptr noundef %2, ptr noundef nonnull @ei_nas_eps_missing_mandatory_elemen, ptr noundef %0, i32 noundef %3, i32 noundef 0, ptr noundef nonnull @.str.959, ptr noundef %15, ptr noundef nonnull @.str.952)
  br label %17

17:                                               ; preds = %14, %10
  %.092 = phi i32 [ %12, %10 ], [ %3, %14 ]
  %.0 = phi i32 [ %13, %10 ], [ %4, %14 ]
  %18 = icmp slt i32 %.0, 1
  br i1 %18, label %62, label %19

19:                                               ; preds = %17
  %20 = tail call zeroext i16 @elem_tlv_e(ptr noundef %0, ptr noundef %1, ptr noundef %2, i8 noundef zeroext 120, i32 noundef 10, i32 noundef 18, i32 noundef %.092, i32 noundef %.0, ptr noundef null)
  %21 = zext i16 %20 to i32
  %22 = sub nsw i32 %.0, %21
  %23 = icmp slt i32 %22, 1
  br i1 %23, label %62, label %24

24:                                               ; preds = %19
  %25 = add i32 %.092, %21
  %26 = tail call zeroext i16 @elem_tlv(ptr noundef %0, ptr noundef %1, ptr noundef %2, i8 noundef zeroext 95, i32 noundef 5, i32 noundef 70, i32 noundef %25, i32 noundef %22, ptr noundef nonnull @.str.999)
  %27 = zext i16 %26 to i32
  %28 = sub nsw i32 %22, %27
  %29 = icmp slt i32 %28, 1
  br i1 %29, label %62, label %30

30:                                               ; preds = %24
  %31 = add i32 %25, %27
  %32 = tail call zeroext i16 @elem_tlv(ptr noundef %0, ptr noundef %1, ptr noundef %2, i8 noundef zeroext 22, i32 noundef 5, i32 noundef 70, i32 noundef %31, i32 noundef %28, ptr noundef nonnull @.str.991)
  %33 = zext i16 %32 to i32
  %34 = sub nsw i32 %28, %33
  %35 = icmp slt i32 %34, 1
  br i1 %35, label %62, label %36

36:                                               ; preds = %30
  %37 = add i32 %31, %33
  %38 = tail call zeroext i16 @elem_tv_short(ptr noundef %0, ptr noundef %1, ptr noundef %2, i8 noundef zeroext -96, i32 noundef 10, i32 noundef 34, i32 noundef %37, ptr noundef null)
  %39 = zext i16 %38 to i32
  %40 = sub nsw i32 %34, %39
  %41 = icmp slt i32 %40, 1
  br i1 %41, label %62, label %42

42:                                               ; preds = %36
  %43 = add i32 %37, %39
  %44 = tail call zeroext i16 @elem_tlv(ptr noundef %0, ptr noundef %1, ptr noundef %2, i8 noundef zeroext 28, i32 noundef 5, i32 noundef 71, i32 noundef %43, i32 noundef %40, ptr noundef nonnull @.str.1000)
  %45 = zext i16 %44 to i32
  %46 = sub nsw i32 %40, %45
  %47 = icmp slt i32 %46, 1
  br i1 %47, label %62, label %48

48:                                               ; preds = %42
  %49 = add i32 %43, %45
  %50 = tail call zeroext i16 @elem_tlv(ptr noundef %0, ptr noundef %1, ptr noundef %2, i8 noundef zeroext 29, i32 noundef 10, i32 noundef 41, i32 noundef %49, i32 noundef %46, ptr noundef nonnull @.str.997)
  %51 = zext i16 %50 to i32
  %52 = sub nsw i32 %46, %51
  %53 = icmp slt i32 %52, 1
  br i1 %53, label %62, label %54

54:                                               ; preds = %48
  %55 = add i32 %49, %51
  %56 = tail call zeroext i16 @elem_tlv(ptr noundef %0, ptr noundef %1, ptr noundef %2, i8 noundef zeroext 30, i32 noundef 10, i32 noundef 41, i32 noundef %55, i32 noundef %52, ptr noundef nonnull @.str.998)
  %57 = zext i16 %56 to i32
  %.not116 = icmp eq i32 %52, %57
  br i1 %.not116, label %62, label %58

58:                                               ; preds = %54
  %59 = sub nsw i32 %52, %57
  %60 = add i32 %55, %57
  %61 = tail call ptr @proto_tree_add_expert(ptr noundef %1, ptr noundef %2, ptr noundef nonnull @ei_nas_eps_extraneous_data, ptr noundef %0, i32 noundef %60, i32 noundef %59)
  br label %62

62:                                               ; preds = %54, %58, %48, %42, %36, %30, %24, %19, %17
  ret void
}